Certificate:
    Data:
        Version: 3 (0x2)
        Serial Number: 2 (0x2)
        Signature Algorithm: sha256WithRSAEncryption
        Issuer: C=US, ST=CA, L=San Jose, CN=www.ixsystems.com/emailAddress=hostmaster@ixsystems.com
        Validity
            Not Before: Oct 24 19:59:25 2014 GMT
            Not After : Jul 23 19:59:25 2024 GMT
        Subject: C=US, ST=CA, L=San Jose, CN=update.freenas.org
        Subject Public Key Info:
            Public Key Algorithm: rsaEncryption
            RSA Public Key: (2048 bit)
                Modulus (2048 bit):
                    00:c5:93:70:d6:2d:a9:2d:3e:95:a7:e5:d6:b7:fb:
                    29:38:c3:5b:0f:4f:01:00:0a:b3:33:3f:93:49:95:
                    de:76:fc:8f:af:de:98:58:c7:89:81:4c:55:b9:8a:
                    c8:3a:38:f2:12:6c:63:2f:45:46:ea:44:95:a5:1e:
                    a3:53:0d:b8:83:28:b9:30:18:a7:26:a7:70:fb:e9:
                    05:47:b2:6c:7b:9d:d8:ce:f3:d8:f4:e0:ab:75:34:
                    9e:d7:3c:7c:d9:2c:d1:25:1e:79:65:c2:4a:fe:b2:
                    3a:ad:37:6d:3b:4f:a4:0a:af:f1:13:cb:35:b7:e5:
                    c4:4b:dd:5f:be:9d:00:a3:70:40:02:e2:5e:64:a6:
                    ee:97:5b:c5:9d:e7:d4:58:b6:28:f3:d5:ea:d8:78:
                    b3:71:89:70:de:b7:19:bd:e3:dd:82:26:b2:e3:b9:
                    6d:52:36:b8:2f:d5:1c:25:1d:4a:88:34:58:95:81:
                    0a:8a:72:94:57:2c:02:d8:46:d7:aa:0a:aa:64:64:
                    3b:d8:47:93:84:d3:d7:7a:40:86:87:ec:ff:c4:f2:
                    42:9f:fd:8b:81:6c:73:96:42:75:db:49:81:9c:f5:
                    04:8a:19:ad:1b:19:5a:09:72:49:90:a4:5e:d0:ad:
                    c5:ff:15:72:03:7c:76:25:db:b1:08:7f:51:1d:e4:
                    a3:bb
                Exponent: 65537 (0x10001)
        X509v3 extensions:
            X509v3 Subject Key Identifier: 
                8D:FD:0C:18:D0:9F:47:5F:46:CB:56:1A:6D:2D:E4:BB:CB:87:E6:E8
            X509v3 Authority Key Identifier: 
                keyid:B0:35:1E:CA:99:FA:54:80:2C:6D:4A:64:C4:21:C5:76:4B:A1:3B:57

            X509v3 Basic Constraints: 
                CA:FALSE
            X509v3 Key Usage: 
                Digital Signature, Non Repudiation, Key Encipherment
            X509v3 Subject Alternative Name: 
                DNS:beta-update.freenas.org, DNS:update.freenas.org
            Netscape Comment: 
                OpenSSL Generated Certificate
    Signature Algorithm: sha256WithRSAEncryption
        5a:c1:a1:00:0f:13:e5:04:21:e9:7f:eb:f5:be:4f:4d:35:27:
        42:3c:aa:e6:24:ad:b2:0f:76:8d:a8:43:88:78:2c:f9:87:39:
        bf:3f:bc:62:a2:f9:89:c9:56:94:41:d2:7f:7d:2d:a4:86:1e:
        af:38:a0:2f:7d:a2:34:b4:7b:62:60:e3:e4:05:14:d2:0c:a1:
        cd:51:60:92:75:97:19:ea:27:38:96:cd:96:e4:8f:81:03:a2:
        92:d8:27:2a:33:dd:d1:15:02:fd:f2:11:71:04:54:6b:e8:f5:
        24:26:73:c1:3d:c5:9a:59:18:90:a5:91:27:4a:cd:03:2a:71:
        d8:4d:bb:e4:05:44:53:61:6b:0c:6c:31:57:ad:f1:a7:fe:5b:
        fe:46:71:fd:8d:46:18:c7:dd:d2:87:82:8d:6a:9d:65:45:5a:
        ca:4b:42:c8:7d:24:93:66:28:57:0d:08:52:cd:c2:ac:5c:b4:
        52:9c:2d:51:89:f3:31:e7:43:8c:7e:ce:f6:57:d2:64:05:a8:
        59:a3:14:7c:a7:e5:4a:ea:fa:7b:c5:c0:9e:c4:f1:b6:ef:3a:
        73:e3:e3:dc:77:e0:55:39:f7:97:76:e0:c3:3b:95:fe:dd:ce:
        eb:fa:3a:62:b4:3a:8c:a0:29:6d:d1:10:fd:b4:4b:ac:0e:1a:
        ca:6f:5a:ca:8a:96:7e:64:d9:72:17:3b:8b:da:c7:3e:a7:9a:
        7a:19:f9:7e:33:c5:d3:3d:5e:52:98:df:5d:52:04:60:04:bf:
        50:14:a1:b9:97:41:21:2c:92:fe:9c:72:b5:b8:01:0f:2c:50:
        4b:4d:42:9e:aa:dd:70:9a:e8:ee:fb:33:4f:44:ec:20:28:a4:
        72:63:60:6a:2d:cd:3b:77:5a:52:64:5d:70:73:12:9b:f4:15:
        b4:83:57:7a:c0:c9:c8:1a:ec:f3:1f:65:06:89:9a:9e:85:c7:
        be:3c:c7:fd:04:85:c0:e5:1c:c2:05:99:4d:29:f8:d2:94:92:
        54:5f:c0:1a:c6:4a:70:d3:07:92:fc:8d:fb:88:da:fe:59:72:
        f8:d8:fc:4c:51:34:90:a3:aa:c2:1c:9c:13:05:23:71:be:75:
        45:5f:8e:78:79:8d:a2:cc:17:59:3f:be:1c:13:ad:da:5d:9e:
        42:3c:ff:fc:0e:aa:2c:f5:d1:d4:56:be:72:f3:0c:34:0f:bd:
        0e:76:85:96:62:0a:88:2f:bc:c0:be:6e:80:17:5c:b3:53:f3:
        e7:54:f2:85:0a:47:66:be:6d:0e:9e:e8:30:59:75:77:7a:db:
        e1:45:7f:36:6c:29:21:16:38:6c:9f:f9:cc:c3:3f:67:a5:11:
        36:00:1a:62:6b:eb:ca:8c
-----BEGIN CERTIFICATE-----
MIIE+TCCAuGgAwIBAgIBAjANBgkqhkiG9w0BAQsFADByMQswCQYDVQQGEwJVUzEL
MAkGA1UECAwCQ0ExETAPBgNVBAcMCFNhbiBKb3NlMRowGAYDVQQDDBF3d3cuaXhz
eXN0ZW1zLmNvbTEnMCUGCSqGSIb3DQEJARYYaG9zdG1hc3RlckBpeHN5c3RlbXMu
Y29tMB4XDTE0MTAyNDE5NTkyNVoXDTI0MDcyMzE5NTkyNVowSjELMAkGA1UEBhMC
VVMxCzAJBgNVBAgMAkNBMREwDwYDVQQHDAhTYW4gSm9zZTEbMBkGA1UEAwwSdXBk
YXRlLmZyZWVuYXMub3JnMIIBIjANBgkqhkiG9w0BAQEFAAOCAQ8AMIIBCgKCAQEA
xZNw1i2pLT6Vp+XWt/spOMNbD08BAAqzMz+TSZXedvyPr96YWMeJgUxVuYrIOjjy
EmxjL0VG6kSVpR6jUw24gyi5MBinJqdw++kFR7Jse53YzvPY9OCrdTSe1zx82SzR
JR55ZcJK/rI6rTdtO0+kCq/xE8s1t+XES91fvp0Ao3BAAuJeZKbul1vFnefUWLYo
89Xq2HizcYlw3rcZvePdgiay47ltUja4L9UcJR1KiDRYlYEKinKUVywC2EbXqgqq
ZGQ72EeThNPXekCGh+z/xPJCn/2LgWxzlkJ120mBnPUEihmtGxlaCXJJkKRe0K3F
/xVyA3x2JduxCH9RHeSjuwIDAQABo4HBMIG+MB0GA1UdDgQWBBSN/QwY0J9HX0bL
VhptLeS7y4fm6DAfBgNVHSMEGDAWgBSwNR7KmfpUgCxtSmTEIcV2S6E7VzAJBgNV
HRMEAjAAMAsGA1UdDwQEAwIF4DA2BgNVHREELzAtghdiZXRhLXVwZGF0ZS5mcmVl
bmFzLm9yZ4ISdXBkYXRlLmZyZWVuYXMub3JnMCwGCWCGSAGG+EIBDQQfFh1PcGVu
U1NMIEdlbmVyYXRlZCBDZXJ0aWZpY2F0ZTANBgkqhkiG9w0BAQsFAAOCAgEAWsGh
AA8T5QQh6X/r9b5PTTUnQjyq5iStsg92jahDiHgs+Yc5vz+8YqL5iclWlEHSf30t
pIYerzigL32iNLR7YmDj5AUU0gyhzVFgknWXGeonOJbNluSPgQOiktgnKjPd0RUC
/fIRcQRUa+j1JCZzwT3FmlkYkKWRJ0rNAypx2E275AVEU2FrDGwxV63xp/5b/kZx
/Y1GGMfd0oeCjWqdZUVayktCyH0kk2YoVw0IUs3CrFy0UpwtUYnzMedDjH7O9lfS
ZAWoWaMUfKflSur6e8XAnsTxtu86c+Pj3HfgVTn3l3bgwzuV/t3O6/o6YrQ6jKAp
bdEQ/bRLrA4aym9ayoqWfmTZchc7i9rHPqeaehn5fjPF0z1eUpjfXVIEYAS/UBSh
uZdBISyS/pxytbgBDyxQS01CnqrdcJro7vszT0TsICikcmNgai3NO3daUmRdcHMS
m/QVtINXesDJyBrs8x9lBomanoXHvjzH/QSFwOUcwgWZTSn40pSSVF/AGsZKcNMH
kvyN+4ja/lly+Nj8TFE0kKOqwhycEwUjcb51RV+OeHmNoswXWT++HBOt2l2eQjz/
/A6qLPXR1Fa+cvMMNA+9DnaFlmIKiC+8wL5ugBdcs1Pz51TyhQpHZr5tDp7oMFl1
d3rb4UV/NmwpIRY4bJ/5zMM/Z6URNgAaYmvryow=
-----END CERTIFICATE-----
