Certificate:
    Data:
        Version: 3 (0x2)
        Serial Number: 3 (0x3)
        Signature Algorithm: sha256WithRSAEncryption
        Issuer: C=US, ST=CA, L=San Jose, CN=www.ixsystems.com/emailAddress=hostmaster@ixsystems.com
        Validity
            Not Before: Oct 26 19:59:40 2014 GMT
            Not After : Jul 25 19:59:40 2024 GMT
        Subject: C=US, ST=CA, L=San Jose, CN=update.freenas.org
        Subject Public Key Info:
            Public Key Algorithm: rsaEncryption
            RSA Public Key: (2048 bit)
                Modulus (2048 bit):
                    00:c5:93:70:d6:2d:a9:2d:3e:95:a7:e5:d6:b7:fb:
                    29:38:c3:5b:0f:4f:01:00:0a:b3:33:3f:93:49:95:
                    de:76:fc:8f:af:de:98:58:c7:89:81:4c:55:b9:8a:
                    c8:3a:38:f2:12:6c:63:2f:45:46:ea:44:95:a5:1e:
                    a3:53:0d:b8:83:28:b9:30:18:a7:26:a7:70:fb:e9:
                    05:47:b2:6c:7b:9d:d8:ce:f3:d8:f4:e0:ab:75:34:
                    9e:d7:3c:7c:d9:2c:d1:25:1e:79:65:c2:4a:fe:b2:
                    3a:ad:37:6d:3b:4f:a4:0a:af:f1:13:cb:35:b7:e5:
                    c4:4b:dd:5f:be:9d:00:a3:70:40:02:e2:5e:64:a6:
                    ee:97:5b:c5:9d:e7:d4:58:b6:28:f3:d5:ea:d8:78:
                    b3:71:89:70:de:b7:19:bd:e3:dd:82:26:b2:e3:b9:
                    6d:52:36:b8:2f:d5:1c:25:1d:4a:88:34:58:95:81:
                    0a:8a:72:94:57:2c:02:d8:46:d7:aa:0a:aa:64:64:
                    3b:d8:47:93:84:d3:d7:7a:40:86:87:ec:ff:c4:f2:
                    42:9f:fd:8b:81:6c:73:96:42:75:db:49:81:9c:f5:
                    04:8a:19:ad:1b:19:5a:09:72:49:90:a4:5e:d0:ad:
                    c5:ff:15:72:03:7c:76:25:db:b1:08:7f:51:1d:e4:
                    a3:bb
                Exponent: 65537 (0x10001)
        X509v3 extensions:
            X509v3 Subject Key Identifier: 
                8D:FD:0C:18:D0:9F:47:5F:46:CB:56:1A:6D:2D:E4:BB:CB:87:E6:E8
            X509v3 Authority Key Identifier: 
                keyid:B0:35:1E:CA:99:FA:54:80:2C:6D:4A:64:C4:21:C5:76:4B:A1:3B:57

            X509v3 Basic Constraints: 
                CA:FALSE
            X509v3 Key Usage: 
                Digital Signature, Non Repudiation, Key Encipherment
            X509v3 Subject Alternative Name: 
                DNS:beta-update.freenas.org, DNS:update.freenas.org
            Netscape Comment: 
                OpenSSL Generated Certificate
    Signature Algorithm: sha256WithRSAEncryption
        12:3e:85:c9:07:dc:7b:a4:fd:c8:3e:b7:15:76:76:61:17:07:
        a3:3b:43:a9:21:3e:48:26:ef:20:aa:7d:2d:ce:1e:f8:bc:71:
        58:f1:d2:d3:4d:28:32:82:8c:3c:1e:14:ea:e0:3a:94:51:b8:
        78:14:0a:f5:9e:70:28:6a:64:f9:18:92:f1:88:98:71:2c:e5:
        95:7b:c7:9b:fc:2a:f2:e7:1f:01:f8:40:74:85:76:98:b9:c1:
        8e:26:92:b7:43:61:72:1e:ad:b2:ee:ca:ca:cd:f0:34:45:90:
        78:23:8f:88:e4:74:e4:3b:57:a2:e9:16:9c:ac:9e:12:bf:6f:
        39:8d:89:59:57:94:30:0f:7c:8d:f5:e8:43:28:38:3e:74:02:
        14:35:45:bf:ec:de:6f:a9:e4:0a:d2:b1:07:54:43:d3:16:03:
        94:41:76:34:bc:bd:0f:b0:58:cb:f5:ab:4c:65:fc:bd:c6:56:
        bd:77:c4:45:6c:11:bd:ed:5b:50:fe:5a:70:74:fe:3b:99:14:
        f6:c6:d1:32:cd:d6:fa:1f:11:c5:f7:ea:5a:c5:f6:6f:fc:93:
        61:7c:0e:8c:e5:51:d7:6a:f2:d1:7f:de:6b:94:3d:e4:7f:e7:
        2b:d3:8e:a4:a2:74:3e:c7:19:e3:a5:84:d9:bd:b3:a6:da:7f:
        f1:99:88:8e:3a:9e:cd:13:78:e6:26:c7:ee:87:63:7b:72:0e:
        cd:4e:96:9b:96:4c:1f:0f:7b:48:77:da:7f:77:91:25:13:5b:
        bd:fa:11:9b:b2:0d:47:5f:fa:12:48:0b:a8:8f:78:bb:af:67:
        46:ce:26:52:5a:c7:e6:83:ae:16:09:24:11:a8:e9:6d:ce:6d:
        34:b6:6d:db:19:23:48:9b:d5:57:86:85:4f:74:45:f0:c3:d2:
        34:a2:8b:f2:17:63:e3:ec:8b:02:77:49:75:f8:48:b7:0b:41:
        bd:c1:90:04:5e:e0:87:66:1e:85:aa:58:a3:3d:b2:a6:ca:0b:
        0e:80:4b:2e:8b:0e:d6:39:c4:13:0f:75:f0:45:22:01:bb:55:
        42:1a:91:2d:d8:41:6f:32:85:05:73:35:87:68:ba:41:be:28:
        bd:9e:8a:c3:94:59:dc:94:30:64:74:5e:05:c6:de:ec:80:98:
        0a:42:57:ed:71:87:e8:14:f6:ce:df:4e:d3:15:93:0e:05:cb:
        40:15:ce:0d:8c:31:66:74:87:45:da:36:40:36:01:90:9b:06:
        35:e4:ee:99:55:1b:22:e0:67:e7:35:c7:53:37:e3:59:62:55:
        c1:87:3a:f2:76:8a:73:c9:7e:6f:7d:7c:9c:c1:9a:a9:6d:11:
        44:0c:19:19:f0:48:2e:f1
-----BEGIN CERTIFICATE-----
MIIE+TCCAuGgAwIBAgIBAzANBgkqhkiG9w0BAQsFADByMQswCQYDVQQGEwJVUzEL
MAkGA1UECAwCQ0ExETAPBgNVBAcMCFNhbiBKb3NlMRowGAYDVQQDDBF3d3cuaXhz
eXN0ZW1zLmNvbTEnMCUGCSqGSIb3DQEJARYYaG9zdG1hc3RlckBpeHN5c3RlbXMu
Y29tMB4XDTE0MTAyNjE5NTk0MFoXDTI0MDcyNTE5NTk0MFowSjELMAkGA1UEBhMC
VVMxCzAJBgNVBAgMAkNBMREwDwYDVQQHDAhTYW4gSm9zZTEbMBkGA1UEAwwSdXBk
YXRlLmZyZWVuYXMub3JnMIIBIjANBgkqhkiG9w0BAQEFAAOCAQ8AMIIBCgKCAQEA
xZNw1i2pLT6Vp+XWt/spOMNbD08BAAqzMz+TSZXedvyPr96YWMeJgUxVuYrIOjjy
EmxjL0VG6kSVpR6jUw24gyi5MBinJqdw++kFR7Jse53YzvPY9OCrdTSe1zx82SzR
JR55ZcJK/rI6rTdtO0+kCq/xE8s1t+XES91fvp0Ao3BAAuJeZKbul1vFnefUWLYo
89Xq2HizcYlw3rcZvePdgiay47ltUja4L9UcJR1KiDRYlYEKinKUVywC2EbXqgqq
ZGQ72EeThNPXekCGh+z/xPJCn/2LgWxzlkJ120mBnPUEihmtGxlaCXJJkKRe0K3F
/xVyA3x2JduxCH9RHeSjuwIDAQABo4HBMIG+MB0GA1UdDgQWBBSN/QwY0J9HX0bL
VhptLeS7y4fm6DAfBgNVHSMEGDAWgBSwNR7KmfpUgCxtSmTEIcV2S6E7VzAJBgNV
HRMEAjAAMAsGA1UdDwQEAwIF4DA2BgNVHREELzAtghdiZXRhLXVwZGF0ZS5mcmVl
bmFzLm9yZ4ISdXBkYXRlLmZyZWVuYXMub3JnMCwGCWCGSAGG+EIBDQQfFh1PcGVu
U1NMIEdlbmVyYXRlZCBDZXJ0aWZpY2F0ZTANBgkqhkiG9w0BAQsFAAOCAgEAEj6F
yQfce6T9yD63FXZ2YRcHoztDqSE+SCbvIKp9Lc4e+LxxWPHS000oMoKMPB4U6uA6
lFG4eBQK9Z5wKGpk+RiS8YiYcSzllXvHm/wq8ucfAfhAdIV2mLnBjiaSt0Nhch6t
su7Kys3wNEWQeCOPiOR05DtXoukWnKyeEr9vOY2JWVeUMA98jfXoQyg4PnQCFDVF
v+zeb6nkCtKxB1RD0xYDlEF2NLy9D7BYy/WrTGX8vcZWvXfERWwRve1bUP5acHT+
O5kU9sbRMs3W+h8RxffqWsX2b/yTYXwOjOVR12ry0X/ea5Q95H/nK9OOpKJ0PscZ
46WE2b2zptp/8ZmIjjqezRN45ibH7odje3IOzU6Wm5ZMHw97SHfaf3eRJRNbvfoR
m7INR1/6EkgLqI94u69nRs4mUlrH5oOuFgkkEajpbc5tNLZt2xkjSJvVV4aFT3RF
8MPSNKKL8hdj4+yLAndJdfhItwtBvcGQBF7gh2YehapYoz2ypsoLDoBLLosO1jnE
Ew918EUiAbtVQhqRLdhBbzKFBXM1h2i6Qb4ovZ6Kw5RZ3JQwZHReBcbe7ICYCkJX
7XGH6BT2zt9O0xWTDgXLQBXODYwxZnSHRdo2QDYBkJsGNeTumVUbIuBn5zXHUzfj
WWJVwYc68naKc8l+b318nMGaqW0RRAwZGfBILvE=
-----END CERTIFICATE-----
