Certificate:
    Data:
        Version: 3 (0x2)
        Serial Number: 3 (0x3)
        Signature Algorithm: sha256WithRSAEncryption
        Issuer: C=US, ST=CA, L=San Jose, CN=www.ixsystems.com/emailAddress=hostmaster@ixsystems.com
        Validity
            Not Before: Oct 26 19:59:40 2014 GMT
            Not After : Jul 25 19:59:40 2024 GMT
        Subject: C=US, ST=CA, L=San Jose, CN=update.freenas.org
        Subject Public Key Info:
            Public Key Algorithm: rsaEncryption
            RSA Public Key: (2048 bit)
                Modulus (2048 bit):
                    00:c5:93:70:d6:2d:a9:2d:3e:95:a7:e5:d6:b7:fb:
                    29:38:c3:5b:0f:4f:01:00:0a:b3:33:3f:93:49:95:
                    de:76:fc:8f:af:de:98:58:c7:89:81:4c:55:b9:8a:
                    c8:3a:38:f2:12:6c:63:2f:45:46:ea:44:95:a5:1e:
                    a3:53:0d:b8:83:28:b9:30:18:a7:26:a7:70:fb:e9:
                    05:47:b2:6c:7b:9d:d8:ce:f3:d8:f4:e0:ab:75:34:
                    9e:d7:3c:7c:d9:2c:d1:25:1e:79:65:c2:4a:fe:b2:
                    3a:ad:37:6d:3b:4f:a4:0a:af:f1:13:cb:35:b7:e5:
                    c4:4b:dd:5f:be:9d:00:a3:70:40:02:e2:5e:64:a6:
                    ee:97:5b:c5:9d:e7:d4:58:b6:28:f3:d5:ea:d8:78:
                    b3:71:89:70:de:b7:19:bd:e3:dd:82:26:b2:e3:b9:
                    6d:52:36:b8:2f:d5:1c:25:1d:4a:88:34:58:95:81:
                    0a:8a:72:94:57:2c:02:d8:46:d7:aa:0a:aa:64:64:
                    3b:d8:47:93:84:d3:d7:7a:40:86:87:ec:ff:c4:f2:
                    42:9f:fd:8b:81:6c:73:96:42:75:db:49:81:9c:f5:
                    04:8a:19:ad:1b:19:5a:09:72:49:90:a4:5e:d0:ad:
                    c5:ff:15:72:03:7c:76:25:db:b1:08:7f:51:1d:e4:
                    a3:bb
                Exponent: 65537 (0x10001)
        X509v3 extensions:
            X509v3 Subject Key Identifier: 
                8D:FD:0C:18:D0:9F:47:5F:46:CB:56:1A:6D:2D:E4:BB:CB:87:E6:E8
            X509v3 Authority Key Identifier: 
                keyid:B0:35:1E:CA:99:FA:54:80:2C:6D:4A:64:C4:21:C5:76:4B:A1:3B:57

            X509v3 Basic Constraints: 
                CA:FALSE
            X509v3 Key Usage: 
                Digital Signature, Non Repudiation, Key Encipherment
            X509v3 Subject Alternative Name: 
                DNS:beta-update.freenas.org, DNS:update.freenas.org
            Netscape Comment: 
                OpenSSL Generated Certificate
    Signature Algorithm: sha256WithRSAEncryption
        12:3e:85:c9:07:dc:7b:a4:fd:c8:3e:b7:15:76:76:61:17:07:
        a3:3b:43:a9:21:3e:48:26:ef:20:aa:7d:2d:ce:1e:f8:bc:71:
        58:f1:d2:d3:4d:28:32:82:8c:3c:1e:14:ea:e0:3a:94:51:b8:
        78:14:0a:f5:9e:70:28:6a:64:f9:18:92:f1:88:98:71:2c:e5:
        95:7b:c7:9b:fc:2a:f2:e7:1f:01:f8:40:74:85:76:98:b9:c1:
        8e:26:92:b7:43:61:72:1e:ad:b2:ee:ca:ca:cd:f0:34:45:90:
        78:23:8f:88:e4:74:e4:3b:57:a2:e9:16:9c:ac:9e:12:bf:6f:
        39:8d:89:59:57:94:30:0f:7c:8d:f5:e8:43:28:38:3e:74:02:
        14:35:45:bf:ec:de:6f:a9:e4:0a:d2:b1:07:54:43:d3:16:03:
        94:41:76:34:bc:bd:0f:b0:58:cb:f5:ab:4c:65:fc:bd:c6:56:
        bd:77:c4:45:6c:11:bd:ed:5b:50:fe:5a:70:74:fe:3b:99:14:
        f6:c6:d1:32:cd:d6:fa:1f:11:c5:f7:ea:5a:c5:f6:6f:fc:93:
        61:7c:0e:8c:e5:51:d7:6a:f2:d1:7f:de:6b:94:3d:e4:7f:e7:
        2b:d3:8e:a4:a2:74:3e:c7:19:e3:a5:84:d9:bd:b3:a6:da:7f:
        f1:99:88:8e:3a:9e:cd:13:78:e6:26:c7:ee:87:63:7b:72:0e:
        cd:4e:96:9b:96:4c:1f:0f:7b:48:77:da:7f:77:91:25:13:5b:
        bd:fa:11:9b:b2:0d:47:5f:fa:12:48:0b:a8:8f:78:bb:af:67:
        46:ce:26:52:5a:c7:e6:83:ae:16:09:24:11:a8:e9:6d:ce:6d:
        34:b6:6d:db:19:23:48:9b:d5:57:86:85:4f:74:45:f0:c3:d2:
        34:a2:8b:f2:17:63:e3:ec:8b:02:77:49:75:f8:48:b7:0b:41:
        bd:c1:90:04:5e:e0:87:66:1e:85:aa:58:a3:3d:b2:a6:ca:0b:
        0e:80:4b:2e:8b:0e:d6:39:c4:13:0f:75:f0:45:22:01:bb:55:
        42:1a:91:2d:d8:41:6f:32:85:05:73:35:87:68:ba:41:be:28:
        bd:9e:8a:c3:94:59:dc:94:30:64:74:5e:05:c6:de:ec:80:98:
        0a:42:57:ed:71:87:e8:14:f6:ce:df:4e:d3:15:93:0e:05:cb:
        40:15:ce:0d:8c:31:66:74:87:45:da:36:40:36:01:90:9b:06:
        35:e4:ee:99:55:1b:22:e0:67:e7:35:c7:53:37:e3:59:62:55:
        c1:87:3a:f2:76:8a:73:c9:7e:6f:7d:7c:9c:c1:9a:a9:6d:11:
        44:0c:19:19:f0:48:2e:f1
-----BEGIN CERTIFICATE-----
MIIE+TCCAuGgAwIBAgIBAzANBgkqhkiG9w0BAQsFADByMQswCQYDVQQGEwJVUzEL
MAkGA1UECAwCQ0ExETAPBgNVBAcMCFNhbiBKb3NlMRowGAYDVQQDDBF3d3cuaXhz
eXN0ZW1zLmNvbTEnMCUGCSqGSIb3DQEJARYYaG9zdG1hc3RlckBpeHN5c3RlbXMu
Y29tMB4XDTE0MTAyNjE5NTk0MFoXDTI0MDcyNTE5NTk0MFowSjELMAkGA1UEBhMC
VVMxCzAJBgNVBAgMAkNBMREwDwYDVQQHDAhTYW4gSm9zZTEbMBkGA1UEAwwSdXBk
YXRlLmZyZWVuYXMub3JnMIIBIjANBgkqhkiG9w0BAQEFAAOCAQ8AMIIBCgKCAQEA
xZNw1i2pLT6Vp+XWt/spOMNbD08BAAqzMz+TSZXedvyPr96YWMeJgUxVuYrIOjjy
EmxjL0VG6kSVpR6jUw24gyi5MBinJqdw++kFR7Jse53YzvPY9OCrdTSe1zx82SzR
JR55ZcJK/rI6rTdtO0+kCq/xE8s1t+XES91fvp0Ao3BAAuJeZKbul1vFnefUWLYo
89Xq2HizcYlw3rcZvePdgiay47ltUja4L9UcJR1KiDRYlYEKinKUVywC2EbXqgqq
ZGQ72EeThNPXekCGh+z/xPJCn/2LgWxzlkJ120mBnPUEihmtGxlaCXJJkKRe0K3F
/xVyA3x2JduxCH9RHeSjuwIDAQABo4HBMIG+MB0GA1UdDgQWBBSN/QwY0J9HX0bL
VhptLeS7y4fm6DAfBgNVHSMEGDAWgBSwNR7KmfpUgCxtSmTEIcV2S6E7VzAJBgNV
HRMEAjAAMAsGA1UdDwQEAwIF4DA2BgNVHREELzAtghdiZXRhLXVwZGF0ZS5mcmVl
bmFzLm9yZ4ISdXBkYXRlLmZyZWVuYXMub3JnMCwGCWCGSAGG+EIBDQQfFh1PcGVu
U1NMIEdlbmVyYXRlZCBDZXJ0aWZpY2F0ZTANBgkqhkiG9w0BAQsFAAOCAgEAEj6F
yQfce6T9yD63FXZ2YRcHoztDqSE+SCbvIKp9Lc4e+LxxWPHS000oMoKMPB4U6uA6
lFG4eBQK9Z5wKGpk+RiS8YiYcSzllXvHm/wq8ucfAfhAdIV2mLnBjiaSt0Nhch6t
su7Kys3wNEWQeCOPiOR05DtXoukWnKyeEr9vOY2JWVeUMA98jfXoQyg4PnQCFDVF
v+zeb6nkCtKxB1RD0xYDlEF2NLy9D7BYy/WrTGX8vcZWvXfERWwRve1bUP5acHT+
O5kU9sbRMs3W+h8RxffqWsX2b/yTYXwOjOVR12ry0X/ea5Q95H/nK9OOpKJ0PscZ
46WE2b2zptp/8ZmIjjqezRN45ibH7odje3IOzU6Wm5ZMHw97SHfaf3eRJRNbvfoR
m7INR1/6EkgLqI94u69nRs4mUlrH5oOuFgkkEajpbc5tNLZt2xkjSJvVV4aFT3RF
8MPSNKKL8hdj4+yLAndJdfhItwtBvcGQBF7gh2YehapYoz2ypsoLDoBLLosO1jnE
Ew918EUiAbtVQhqRLdhBbzKFBXM1h2i6Qb4ovZ6Kw5RZ3JQwZHReBcbe7ICYCkJX
7XGH6BT2zt9O0xWTDgXLQBXODYwxZnSHRdo2QDYBkJsGNeTumVUbIuBn5zXHUzfj
WWJVwYc68naKc8l+b318nMGaqW0RRAwZGfBILvE=
-----END CERTIFICATE-----
Certificate:
    Data:
        Version: 3 (0x2)
        Serial Number: 4 (0x4)
        Signature Algorithm: sha256WithRSAEncryption
        Issuer: C=US, ST=CA, L=San Jose, CN=www.ixsystems.com/emailAddress=hostmaster@ixsystems.com
        Validity
            Not Before: Nov 11 19:19:03 2014 GMT
            Not After : Aug 10 19:19:03 2024 GMT
        Subject: C=US, ST=CA, L=San Jose, CN=update.freenas.org
        Subject Public Key Info:
            Public Key Algorithm: rsaEncryption
            RSA Public Key: (1024 bit)
                Modulus (1024 bit):
                    00:ab:df:d5:05:5e:61:c1:2a:55:16:ca:de:6c:85:
                    f0:2c:82:83:a8:ca:6f:0f:29:bb:a2:61:30:d9:9f:
                    8f:6a:f3:20:33:cf:49:81:c6:7c:19:4b:85:f8:c8:
                    9b:fb:d8:5c:a9:dc:ec:45:c7:2d:50:5b:8d:b1:66:
                    66:28:89:94:d0:bc:3a:a6:7f:f8:50:cb:04:8d:38:
                    e4:70:0e:54:86:3f:e7:d7:e7:86:e5:7b:de:6a:76:
                    bd:3b:7a:eb:d0:ca:fd:3e:01:37:98:a2:5a:59:13:
                    1b:16:03:d3:e8:d5:16:2c:c2:9e:03:82:57:4f:9b:
                    4d:81:f3:0b:ae:2f:f0:b6:a5
                Exponent: 65537 (0x10001)
        X509v3 extensions:
            X509v3 Subject Key Identifier: 
                3D:63:40:43:EF:21:65:E8:F0:6C:F3:5D:BA:12:81:40:F6:75:C7:BA
            X509v3 Authority Key Identifier: 
                keyid:B0:35:1E:CA:99:FA:54:80:2C:6D:4A:64:C4:21:C5:76:4B:A1:3B:57

            X509v3 Basic Constraints: 
                CA:FALSE
            X509v3 Key Usage: 
                Digital Signature, Non Repudiation, Key Encipherment
            X509v3 Subject Alternative Name: 
                DNS:beta-update.freenas.org, DNS:update.freenas.org
            Netscape Comment: 
                OpenSSL Generated Certificate
    Signature Algorithm: sha256WithRSAEncryption
        73:b4:a2:bd:39:e6:9d:98:c5:9c:a6:d3:c5:6c:3e:77:53:8f:
        de:aa:17:08:a0:e6:aa:01:4f:29:6d:44:6d:f6:d7:ea:18:60:
        e6:54:2f:75:94:05:2c:45:4d:b0:58:da:b3:c2:69:ef:fe:97:
        6d:75:19:6b:52:56:a3:08:79:ba:16:33:42:87:35:a1:92:41:
        24:51:81:54:f4:68:2a:b1:fd:c9:4f:8a:62:8b:d3:40:d0:c5:
        e7:cf:8c:27:8f:4a:e4:0e:5e:c7:b8:cf:cf:d7:0d:31:80:51:
        e3:14:04:a3:53:ba:94:f8:e4:50:99:86:fd:f5:ee:f2:0f:9e:
        f8:59:91:9b:97:c3:6e:61:33:e8:fb:0d:19:e6:f5:b8:01:d0:
        2e:41:4e:b1:6c:4a:f5:c8:9e:e0:3e:b1:fe:c1:86:f8:94:be:
        44:92:72:8f:62:b4:19:4b:bb:14:0e:63:54:c5:4a:da:f1:53:
        75:73:bb:9f:f4:46:af:51:26:f1:ba:c4:e4:91:87:09:e4:5e:
        af:b4:f1:e4:ab:e4:7a:b8:dd:59:ca:db:bb:22:48:77:10:40:
        4a:8a:77:cd:2f:d3:fb:df:e5:7c:19:61:a2:6e:6f:27:8e:f1:
        0e:01:ce:f7:2c:86:05:8a:60:b4:ea:ed:e5:12:94:db:06:14:
        25:8c:df:92:a1:72:55:94:e5:a4:04:71:c2:58:99:36:16:d4:
        56:b2:96:09:4f:2a:50:49:f2:f0:67:65:e1:0b:bf:a7:3c:c3:
        7a:fa:76:7c:98:41:ae:bd:97:61:8a:ca:26:3e:ce:88:13:f0:
        54:ef:0f:e0:68:a7:0a:86:68:70:db:1c:d0:fd:5a:69:29:a1:
        f6:0e:63:91:6f:df:95:47:22:57:4a:4f:51:a6:c3:6b:a2:bb:
        ce:7c:84:08:01:18:88:3b:dd:0d:14:8b:e9:25:f9:c9:d1:98:
        ad:27:12:0e:82:ec:71:7f:67:9a:ef:76:59:b5:46:73:c3:50:
        ca:2b:01:ee:88:3a:14:eb:45:a0:8a:a4:26:5b:76:a4:7f:b1:
        71:69:59:c6:3b:39:2f:51:0e:d3:aa:a2:b3:47:04:2b:bb:b6:
        eb:c2:4b:94:cb:fc:bd:0f:f2:2e:3a:11:10:06:cb:17:d2:a4:
        a0:a5:d7:4d:b7:21:de:e6:c1:7e:68:a0:79:db:de:39:82:f3:
        9e:eb:de:64:c1:e6:16:93:ef:67:68:89:f6:d1:f6:b0:da:9f:
        b1:96:89:f9:41:05:7c:72:6b:e4:91:84:6d:1a:1a:24:ba:30:
        54:5d:db:97:cf:f2:26:1e:ae:3d:74:6b:20:26:9b:50:7b:9b:
        2b:62:8e:48:41:9c:2f:17
-----BEGIN CERTIFICATE-----
MIIEdTCCAl2gAwIBAgIBBDANBgkqhkiG9w0BAQsFADByMQswCQYDVQQGEwJVUzEL
MAkGA1UECAwCQ0ExETAPBgNVBAcMCFNhbiBKb3NlMRowGAYDVQQDDBF3d3cuaXhz
eXN0ZW1zLmNvbTEnMCUGCSqGSIb3DQEJARYYaG9zdG1hc3RlckBpeHN5c3RlbXMu
Y29tMB4XDTE0MTExMTE5MTkwM1oXDTI0MDgxMDE5MTkwM1owSjELMAkGA1UEBhMC
VVMxCzAJBgNVBAgMAkNBMREwDwYDVQQHDAhTYW4gSm9zZTEbMBkGA1UEAwwSdXBk
YXRlLmZyZWVuYXMub3JnMIGfMA0GCSqGSIb3DQEBAQUAA4GNADCBiQKBgQCr39UF
XmHBKlUWyt5shfAsgoOoym8PKbuiYTDZn49q8yAzz0mBxnwZS4X4yJv72Fyp3OxF
xy1QW42xZmYoiZTQvDqmf/hQywSNOORwDlSGP+fX54ble95qdr07euvQyv0+ATeY
olpZExsWA9Po1RYswp4DgldPm02B8wuuL/C2pQIDAQABo4HBMIG+MB0GA1UdDgQW
BBQ9Y0BD7yFl6PBs8126EoFA9nXHujAfBgNVHSMEGDAWgBSwNR7KmfpUgCxtSmTE
IcV2S6E7VzAJBgNVHRMEAjAAMAsGA1UdDwQEAwIF4DA2BgNVHREELzAtghdiZXRh
LXVwZGF0ZS5mcmVlbmFzLm9yZ4ISdXBkYXRlLmZyZWVuYXMub3JnMCwGCWCGSAGG
+EIBDQQfFh1PcGVuU1NMIEdlbmVyYXRlZCBDZXJ0aWZpY2F0ZTANBgkqhkiG9w0B
AQsFAAOCAgEAc7SivTnmnZjFnKbTxWw+d1OP3qoXCKDmqgFPKW1EbfbX6hhg5lQv
dZQFLEVNsFjas8Jp7/6XbXUZa1JWowh5uhYzQoc1oZJBJFGBVPRoKrH9yU+KYovT
QNDF58+MJ49K5A5ex7jPz9cNMYBR4xQEo1O6lPjkUJmG/fXu8g+e+FmRm5fDbmEz
6PsNGeb1uAHQLkFOsWxK9cie4D6x/sGG+JS+RJJyj2K0GUu7FA5jVMVK2vFTdXO7
n/RGr1Em8brE5JGHCeRer7Tx5KvkerjdWcrbuyJIdxBASop3zS/T+9/lfBlhom5v
J47xDgHO9yyGBYpgtOrt5RKU2wYUJYzfkqFyVZTlpARxwliZNhbUVrKWCU8qUEny
8Gdl4Qu/pzzDevp2fJhBrr2XYYrKJj7OiBPwVO8P4GinCoZocNsc0P1aaSmh9g5j
kW/flUciV0pPUabDa6K7znyECAEYiDvdDRSL6SX5ydGYrScSDoLscX9nmu92WbVG
c8NQyisB7og6FOtFoIqkJlt2pH+xcWlZxjs5L1EO06qis0cEK7u268JLlMv8vQ/y
LjoREAbLF9KkoKXXTbch3ubBfmigedveOYLznuveZMHmFpPvZ2iJ9tH2sNqfsZaJ
+UEFfHJr5JGEbRoaJLowVF3bl8/yJh6uPXRrICabUHubK2KOSEGcLxc=
-----END CERTIFICATE-----
